target datalayout = "e-m:e-p270:32:32-p271:32:32-p272:64:64-i64:64-i128:128-f80:128-n8:16:32:64-S128"
target triple = "x86_64-pc-linux-gnu"

%"class.std::basic_string_view" = type { i64, ptr }
%"class.absl::lts_20240722::log_internal::Voidify" = type { i8 }
%"class.absl::lts_20240722::log_internal::LogMessage" = type { %"class.absl::lts_20240722::base_internal::ErrnoSaver", %"class.std::unique_ptr.39" }
%"class.absl::lts_20240722::base_internal::ErrnoSaver" = type { i32 }
%"class.std::unique_ptr.39" = type { %"struct.std::__uniq_ptr_data.40" }
%"struct.std::__uniq_ptr_data.40" = type { %"class.std::__uniq_ptr_impl.41" }
%"class.std::__uniq_ptr_impl.41" = type { %"class.std::tuple.42" }
%"class.std::tuple.42" = type { %"struct.std::_Tuple_impl.43" }
%"struct.std::_Tuple_impl.43" = type { %"struct.std::_Head_base.46" }
%"struct.std::_Head_base.46" = type { ptr }
%struct.grpc_arg = type { i32, ptr, %"union.(anonymous struct)::grpc_arg_value" }
%"union.(anonymous struct)::grpc_arg_value" = type { %"struct.(anonymous struct)::grpc_arg_value::grpc_arg_pointer" }
%"struct.(anonymous struct)::grpc_arg_value::grpc_arg_pointer" = type { ptr, ptr }
%struct.grpc_channel_args = type { i64, ptr }

@.str.3 = private unnamed_addr constant [124 x i8] c"generated/home/dtcxzyw/WorkSpace/Projects/compilers/llvm-opt-benchmark/bench/grpc/grpc/src/core/lib/channel/channel_args.cc\00", align 1
@.str.13 = private unnamed_addr constant [31 x i8] c" ignored: it must be an string\00", align 1

; Function Attrs: noinline noreturn nounwind uwtable
define linkonce_odr hidden void @__clang_call_terminate(ptr noundef %0) #7 comdat {
  %2 = call ptr @__cxa_begin_catch(ptr %0) #3
  call void @_ZSt9terminatev() #22
  unreachable
}

; Function Attrs: mustprogress nounwind uwtable
define linkonce_odr noundef i64 @_ZNSt11char_traitsIcE6lengthEPKc(ptr noundef %0) #6 comdat align 2 {
  %2 = alloca ptr, align 8
  store ptr %0, ptr %2, align 8, !tbaa !25
  %3 = load ptr, ptr %2, align 8, !tbaa !25
  %4 = call i64 @strlen(ptr noundef %3) #3
  ret i64 %4
}

; Function Attrs: mustprogress nounwind uwtable
define linkonce_odr void @_ZNSt17basic_string_viewIcSt11char_traitsIcEEC2EPKc(ptr noundef nonnull align 8 dereferenceable(16) %0, ptr noundef nonnull %1) unnamed_addr #6 comdat align 2 personality ptr @__gxx_personality_v0 {
  %3 = alloca ptr, align 8
  %4 = alloca ptr, align 8
  store ptr %0, ptr %3, align 8, !tbaa !20
  store ptr %1, ptr %4, align 8, !tbaa !25
  %5 = load ptr, ptr %3, align 8
  %6 = getelementptr inbounds nuw %"class.std::basic_string_view", ptr %5, i32 0, i32 0
  %7 = load ptr, ptr %4, align 8, !tbaa !25
  %8 = invoke noundef i64 @_ZNSt11char_traitsIcE6lengthEPKc(ptr noundef %7)
          to label %9 unwind label %12

9:                                                ; preds = %2
  store i64 %8, ptr %6, align 8, !tbaa !33
  %10 = getelementptr inbounds nuw %"class.std::basic_string_view", ptr %5, i32 0, i32 1
  %11 = load ptr, ptr %4, align 8, !tbaa !25
  store ptr %11, ptr %10, align 8, !tbaa !35
  ret void

12:                                               ; preds = %2
  %13 = landingpad { ptr, i32 }
          catch ptr null
  %14 = extractvalue { ptr, i32 } %13, 0
  call void @__clang_call_terminate(ptr %14) #22
  unreachable
}

; Function Attrs: mustprogress nounwind uwtable
define linkonce_odr void @_ZNKO4absl12lts_2024072212log_internal7VoidifyaaINS1_10LogMessageEEEvRKT_(ptr noundef nonnull align 1 dereferenceable(1) %0, ptr noundef nonnull align 8 dereferenceable(16) %1) #6 comdat align 2 {
  %3 = alloca ptr, align 8
  %4 = alloca ptr, align 8
  store ptr %0, ptr %3, align 8, !tbaa !93
  store ptr %1, ptr %4, align 8, !tbaa !95
  ret void
}

; Function Attrs: mustprogress uwtable
define linkonce_odr noundef nonnull align 8 dereferenceable(16) ptr @_ZN4absl12lts_2024072212log_internal10LogMessagelsILi31EEERS2_RAT__Kc(ptr noundef nonnull align 8 dereferenceable(16) %0, ptr noundef nonnull align 1 dereferenceable(31) %1) #5 comdat align 2 {
  %3 = alloca ptr, align 8
  %4 = alloca ptr, align 8
  %5 = alloca %"class.std::basic_string_view", align 8
  store ptr %0, ptr %3, align 8, !tbaa !95
  store ptr %1, ptr %4, align 8, !tbaa !25
  %6 = load ptr, ptr %3, align 8
  %7 = load ptr, ptr %4, align 8, !tbaa !25
  %8 = getelementptr inbounds [31 x i8], ptr %7, i64 0, i64 0
  call void @_ZNSt17basic_string_viewIcSt11char_traitsIcEEC2EPKc(ptr noundef nonnull align 8 dereferenceable(16) %5, ptr noundef %8) #3
  %9 = getelementptr inbounds nuw { i64, ptr }, ptr %5, i32 0, i32 0
  %10 = load i64, ptr %9, align 8
  %11 = getelementptr inbounds nuw { i64, ptr }, ptr %5, i32 0, i32 1
  %12 = load ptr, ptr %11, align 8
  call void @_ZN4absl12lts_2024072212log_internal10LogMessage19CopyToEncodedBufferILNS2_10StringTypeE0EEEvSt17basic_string_viewIcSt11char_traitsIcEE(ptr noundef nonnull align 8 dereferenceable(16) %6, i64 %10, ptr %12)
  ret ptr %6
}

; Function Attrs: mustprogress nounwind uwtable
define linkonce_odr noundef nonnull align 8 dereferenceable(16) ptr @_ZN4absl12lts_2024072212log_internal10LogMessage14InternalStreamEv(ptr noundef nonnull align 8 dereferenceable(16) %0) #6 comdat align 2 {
  %2 = alloca ptr, align 8
  store ptr %0, ptr %2, align 8, !tbaa !95
  %3 = load ptr, ptr %2, align 8
  ret ptr %3
}

; Function Attrs: mustprogress uwtable
define noundef ptr @_Z27grpc_channel_arg_get_stringPK8grpc_arg(ptr noundef %0) #5 personality ptr @__gxx_personality_v0 {
  %2 = alloca ptr, align 8
  %3 = alloca ptr, align 8
  %4 = alloca %"class.absl::lts_20240722::log_internal::Voidify", align 1
  %5 = alloca %"class.absl::lts_20240722::log_internal::LogMessage", align 8
  %6 = alloca ptr, align 8
  %7 = alloca i32, align 4
  store ptr %0, ptr %3, align 8, !tbaa !3
  %8 = load ptr, ptr %3, align 8, !tbaa !3
  %9 = icmp eq ptr %8, null
  br i1 %9, label %10, label %11

10:                                               ; preds = %1
  store ptr null, ptr %2, align 8
  br label %34

11:                                               ; preds = %1
  %12 = load ptr, ptr %3, align 8, !tbaa !3
  %13 = getelementptr inbounds nuw %struct.grpc_arg, ptr %12, i32 0, i32 0
  %14 = load i32, ptr %13, align 8, !tbaa !42
  %15 = icmp ne i32 %14, 0
  br i1 %15, label %16, label %30

16:                                               ; preds = %11
  call void @llvm.lifetime.start.p0(i64 1, ptr %4) #3
  call void @llvm.lifetime.start.p0(i64 16, ptr %5) #3
  call void @_ZN4absl12lts_2024072212log_internal10LogMessageC1EPKciNS2_8ErrorTagE(ptr noundef nonnull align 8 dereferenceable(16) %5, ptr noundef @.str.3, i32 noundef 581) #23
  %17 = invoke noundef nonnull align 8 dereferenceable(16) ptr @_ZN4absl12lts_2024072212log_internal10LogMessage14InternalStreamEv(ptr noundef nonnull align 8 dereferenceable(16) %5)
          to label %18 unwind label %26

18:                                               ; preds = %16
  %19 = load ptr, ptr %3, align 8, !tbaa !3
  %20 = getelementptr inbounds nuw %struct.grpc_arg, ptr %19, i32 0, i32 1
  %21 = invoke noundef nonnull align 8 dereferenceable(16) ptr @_ZN4absl12lts_2024072212log_internal10LogMessagelsIPcTnNSt9enable_ifIXntsr4absl16HasAbslStringifyIT_EE5valueEiE4typeELi0EEERS2_RKS6_(ptr noundef nonnull align 8 dereferenceable(16) %17, ptr noundef nonnull align 8 dereferenceable(8) %20)
          to label %22 unwind label %26

22:                                               ; preds = %18
  %23 = invoke noundef nonnull align 8 dereferenceable(16) ptr @_ZN4absl12lts_2024072212log_internal10LogMessagelsILi31EEERS2_RAT__Kc(ptr noundef nonnull align 8 dereferenceable(16) %21, ptr noundef nonnull align 1 dereferenceable(31) @.str.13)
          to label %24 unwind label %26

24:                                               ; preds = %22
  invoke void @_ZNKO4absl12lts_2024072212log_internal7VoidifyaaINS1_10LogMessageEEEvRKT_(ptr noundef nonnull align 1 dereferenceable(1) %4, ptr noundef nonnull align 8 dereferenceable(16) %23)
          to label %25 unwind label %26

25:                                               ; preds = %24
  call void @_ZN4absl12lts_2024072212log_internal10LogMessageD1Ev(ptr noundef nonnull align 8 dereferenceable(16) %5) #24
  call void @llvm.lifetime.end.p0(i64 16, ptr %5) #3
  call void @llvm.lifetime.end.p0(i64 1, ptr %4) #3
  store ptr null, ptr %2, align 8
  br label %34

26:                                               ; preds = %24, %22, %18, %16
  %27 = landingpad { ptr, i32 }
          cleanup
  %28 = extractvalue { ptr, i32 } %27, 0
  store ptr %28, ptr %6, align 8
  %29 = extractvalue { ptr, i32 } %27, 1
  store i32 %29, ptr %7, align 4
  call void @_ZN4absl12lts_2024072212log_internal10LogMessageD1Ev(ptr noundef nonnull align 8 dereferenceable(16) %5) #24
  call void @llvm.lifetime.end.p0(i64 16, ptr %5) #3
  call void @llvm.lifetime.end.p0(i64 1, ptr %4) #3
  br label %36

30:                                               ; preds = %11
  %31 = load ptr, ptr %3, align 8, !tbaa !3
  %32 = getelementptr inbounds nuw %struct.grpc_arg, ptr %31, i32 0, i32 2
  %33 = load ptr, ptr %32, align 8, !tbaa !46
  store ptr %33, ptr %2, align 8
  br label %34

34:                                               ; preds = %30, %25, %10
  %35 = load ptr, ptr %2, align 8
  ret ptr %35

36:                                               ; preds = %26
  %37 = load ptr, ptr %6, align 8
  %38 = load i32, ptr %7, align 4
  %39 = insertvalue { ptr, i32 } poison, ptr %37, 0
  %40 = insertvalue { ptr, i32 } %39, i32 %38, 1
  resume { ptr, i32 } %40
}

; Function Attrs: mustprogress nounwind uwtable
define noundef ptr @_Z22grpc_channel_args_findPK17grpc_channel_argsPKc(ptr noundef %0, ptr noundef %1) #6 {
  %3 = alloca ptr, align 8
  %4 = alloca ptr, align 8
  %5 = alloca ptr, align 8
  %6 = alloca i64, align 8
  %7 = alloca i32, align 4
  store ptr %0, ptr %4, align 8, !tbaa !3
  store ptr %1, ptr %5, align 8, !tbaa !25
  %8 = load ptr, ptr %4, align 8, !tbaa !3
  %9 = icmp ne ptr %8, null
  br i1 %9, label %10, label %42

10:                                               ; preds = %2
  call void @llvm.lifetime.start.p0(i64 8, ptr %6) #3
  store i64 0, ptr %6, align 8, !tbaa !23
  br label %11

11:                                               ; preds = %36, %10
  %12 = load i64, ptr %6, align 8, !tbaa !23
  %13 = load ptr, ptr %4, align 8, !tbaa !3
  %14 = getelementptr inbounds nuw %struct.grpc_channel_args, ptr %13, i32 0, i32 0
  %15 = load i64, ptr %14, align 8, !tbaa !48
  %16 = icmp ult i64 %12, %15
  br i1 %16, label %18, label %17

17:                                               ; preds = %11
  store i32 2, ptr %7, align 4
  br label %39

18:                                               ; preds = %11
  %19 = load ptr, ptr %4, align 8, !tbaa !3
  %20 = getelementptr inbounds nuw %struct.grpc_channel_args, ptr %19, i32 0, i32 1
  %21 = load ptr, ptr %20, align 8, !tbaa !50
  %22 = load i64, ptr %6, align 8, !tbaa !23
  %23 = getelementptr inbounds nuw %struct.grpc_arg, ptr %21, i64 %22
  %24 = getelementptr inbounds nuw %struct.grpc_arg, ptr %23, i32 0, i32 1
  %25 = load ptr, ptr %24, align 8, !tbaa !45
  %26 = load ptr, ptr %5, align 8, !tbaa !25
  %27 = call i32 @strcmp(ptr noundef %25, ptr noundef %26) #26
  %28 = icmp eq i32 %27, 0
  br i1 %28, label %29, label %35

29:                                               ; preds = %18
  %30 = load ptr, ptr %4, align 8, !tbaa !3
  %31 = getelementptr inbounds nuw %struct.grpc_channel_args, ptr %30, i32 0, i32 1
  %32 = load ptr, ptr %31, align 8, !tbaa !50
  %33 = load i64, ptr %6, align 8, !tbaa !23
  %34 = getelementptr inbounds nuw %struct.grpc_arg, ptr %32, i64 %33
  store ptr %34, ptr %3, align 8
  store i32 1, ptr %7, align 4
  br label %39

35:                                               ; preds = %18
  br label %36

36:                                               ; preds = %35
  %37 = load i64, ptr %6, align 8, !tbaa !23
  %38 = add i64 %37, 1
  store i64 %38, ptr %6, align 8, !tbaa !23
  br label %11, !llvm.loop !136

39:                                               ; preds = %29, %17
  call void @llvm.lifetime.end.p0(i64 8, ptr %6) #3
  %40 = load i32, ptr %7, align 4
  switch i32 %40, label %45 [
    i32 2, label %41
    i32 1, label %43
  ]

41:                                               ; preds = %39
  br label %42

42:                                               ; preds = %41, %2
  store ptr null, ptr %3, align 8
  br label %43

43:                                               ; preds = %42, %39
  %44 = load ptr, ptr %3, align 8
  ret ptr %44

45:                                               ; preds = %39
  unreachable
}

; Function Attrs: mustprogress uwtable
define noundef ptr @_Z29grpc_channel_args_find_stringPK17grpc_channel_argsPKc(ptr noundef %0, ptr noundef %1) #5 {
  %3 = alloca ptr, align 8
  %4 = alloca ptr, align 8
  %5 = alloca ptr, align 8
  store ptr %0, ptr %3, align 8, !tbaa !3
  store ptr %1, ptr %4, align 8, !tbaa !25
  call void @llvm.lifetime.start.p0(i64 8, ptr %5) #3
  %6 = load ptr, ptr %3, align 8, !tbaa !3
  %7 = load ptr, ptr %4, align 8, !tbaa !25
  %8 = call noundef ptr @_Z22grpc_channel_args_findPK17grpc_channel_argsPKc(ptr noundef %6, ptr noundef %7)
  store ptr %8, ptr %5, align 8, !tbaa !3
  %9 = load ptr, ptr %5, align 8, !tbaa !3
  %10 = call noundef ptr @_Z27grpc_channel_arg_get_stringPK8grpc_arg(ptr noundef %9)
  call void @llvm.lifetime.end.p0(i64 8, ptr %5) #3
  ret ptr %10
}