; Function Attrs: mustprogress uwtable
define noundef ptr @_Z29grpc_channel_args_find_stringPK17grpc_channel_argsPKc(ptr noundef readonly %0, ptr noundef readonly captures(none) %1) local_unnamed_addr #9 personality ptr @__gxx_personality_v0 {
  %3 = alloca %"class.absl::lts_20240722::log_internal::LogMessage", align 8
  %.not.i = icmp eq ptr %0, null
  br i1 %.not.i, label %_Z27grpc_channel_arg_get_stringPK8grpc_arg.exit, label %.preheader.i

.preheader.i:                                     ; preds = %2
  %4 = load i64, ptr %0, align 8, !tbaa !51
  %.not20.i = icmp eq i64 %4, 0
  br i1 %.not20.i, label %_Z27grpc_channel_arg_get_stringPK8grpc_arg.exit, label %.lr.ph.i

.lr.ph.i:                                         ; preds = %.preheader.i
  %5 = getelementptr inbounds nuw i8, ptr %0, i64 8
  %6 = load ptr, ptr %5, align 8, !tbaa !53
  br label %9

7:                                                ; preds = %9
  %8 = add nuw i64 %.01017.i, 1
  %exitcond.not.i = icmp eq i64 %8, %4
  br i1 %exitcond.not.i, label %_Z27grpc_channel_arg_get_stringPK8grpc_arg.exit, label %9, !llvm.loop !179

9:                                                ; preds = %7, %.lr.ph.i
  %.01017.i = phi i64 [ 0, %.lr.ph.i ], [ %8, %7 ]
  %10 = getelementptr inbounds nuw %struct.grpc_arg, ptr %6, i64 %.01017.i
  %11 = getelementptr inbounds nuw i8, ptr %10, i64 8
  %12 = load ptr, ptr %11, align 8, !tbaa !40
  %13 = tail call i32 @strcmp(ptr noundef nonnull dereferenceable(1) %12, ptr noundef nonnull readonly dereferenceable(1) %1) #44
  %14 = icmp eq i32 %13, 0
  br i1 %14, label %_Z22grpc_channel_args_findPK17grpc_channel_argsPKc.exit, label %7

_Z22grpc_channel_args_findPK17grpc_channel_argsPKc.exit: ; preds = %9
  %15 = load i32, ptr %10, align 8, !tbaa !37
  %.not.i3 = icmp eq i32 %15, 0
  br i1 %.not.i3, label %22, label %16

16:                                               ; preds = %_Z22grpc_channel_args_findPK17grpc_channel_argsPKc.exit
  %17 = getelementptr inbounds nuw i8, ptr %10, i64 8
  call void @llvm.lifetime.start.p0(i64 16, ptr nonnull %3) #37
  call void @_ZN4absl12lts_2024072212log_internal10LogMessageC1EPKciNS2_8ErrorTagE(ptr noundef nonnull align 8 dereferenceable(16) %3, ptr noundef nonnull @.str.3, i32 noundef 581) #39
  %18 = invoke noundef nonnull align 8 dereferenceable(16) ptr @_ZN4absl12lts_2024072212log_internal10LogMessagelsIPcTnNSt9enable_ifIXntsr4absl16HasAbslStringifyIT_EE5valueEiE4typeELi0EEERS2_RKS6_(ptr noundef nonnull align 8 dereferenceable(16) %3, ptr noundef nonnull align 8 dereferenceable(8) %17)
          to label %19 unwind label %20

19:                                               ; preds = %16
  invoke void @_ZN4absl12lts_2024072212log_internal10LogMessage19CopyToEncodedBufferILNS2_10StringTypeE0EEEvSt17basic_string_viewIcSt11char_traitsIcEE(ptr noundef nonnull align 8 dereferenceable(16) %18, i64 30, ptr nonnull @.str.13)
          to label %_ZN4absl12lts_2024072212log_internal10LogMessagelsILi31EEERS2_RAT__Kc.exit.i unwind label %20

_ZN4absl12lts_2024072212log_internal10LogMessagelsILi31EEERS2_RAT__Kc.exit.i: ; preds = %19
  call void @_ZN4absl12lts_2024072212log_internal10LogMessageD1Ev(ptr noundef nonnull align 8 dereferenceable(16) %3) #40
  call void @llvm.lifetime.end.p0(i64 16, ptr nonnull %3) #37
  br label %_Z27grpc_channel_arg_get_stringPK8grpc_arg.exit

20:                                               ; preds = %19, %16
  %21 = landingpad { ptr, i32 }
          cleanup
  call void @_ZN4absl12lts_2024072212log_internal10LogMessageD1Ev(ptr noundef nonnull align 8 dereferenceable(16) %3) #40
  call void @llvm.lifetime.end.p0(i64 16, ptr nonnull %3) #37
  resume { ptr, i32 } %21

22:                                               ; preds = %_Z22grpc_channel_args_findPK17grpc_channel_argsPKc.exit
  %23 = getelementptr inbounds nuw i8, ptr %10, i64 16
  %24 = load ptr, ptr %23, align 8, !tbaa !41
  br label %_Z27grpc_channel_arg_get_stringPK8grpc_arg.exit

_Z27grpc_channel_arg_get_stringPK8grpc_arg.exit:  ; preds = %7, %.preheader.i, %2, %_ZN4absl12lts_2024072212log_internal10LogMessagelsILi31EEERS2_RAT__Kc.exit.i, %22
  %.0.i = phi ptr [ null, %_ZN4absl12lts_2024072212log_internal10LogMessagelsILi31EEERS2_RAT__Kc.exit.i ], [ %24, %22 ], [ null, %2 ], [ null, %.preheader.i ], [ null, %7 ]
  ret ptr %.0.i
}